; Function Attrs: nounwind sspstrong uwtable
define hidden i32 @rb_block_min_max_arity(ptr noundef writeonly captures(none) %0) local_unnamed_addr #0 {
  %2 = alloca %struct.rb_block, align 8
  %3 = tail call align 8 ptr @llvm.threadlocal.address.p0(ptr align 8 @ruby_current_ec)
  %4 = load ptr, ptr %3, align 8, !tbaa !20
  %5 = getelementptr inbounds nuw i8, ptr %4, i64 16
  %6 = load ptr, ptr %5, align 8, !tbaa !22
  %7 = tail call i64 @rb_vm_frame_block_handler(ptr noundef %6) #21
  call void @llvm.lifetime.start.p0(i64 32, ptr nonnull %2) #21
  %8 = icmp eq i64 %7, 0
  br i1 %8, label %9, label %11

9:                                                ; preds = %1
  %10 = load i64, ptr @rb_eArgError, align 8, !tbaa !36
  tail call void (i64, ptr, ...) @rb_raise(i64 noundef %10, ptr noundef nonnull @.str.3) #22
  unreachable

11:                                               ; preds = %1
  %12 = and i64 %7, 3
  switch i64 %12, label %13 [
    i64 1, label %22
    i64 3, label %26
  ]

13:                                               ; preds = %11
  %14 = and i64 %7, 255
  %15 = icmp eq i64 %14, 12
  br i1 %15, label %vm_block_handler_type.exit.i, label %16

16:                                               ; preds = %13
  %17 = and i64 %7, 7
  %.not10.i.i = icmp eq i64 %17, 0
  br i1 %.not10.i.i, label %RB_SYMBOL_P.exit.i.i, label %31

RB_SYMBOL_P.exit.i.i:                             ; preds = %16
  %18 = inttoptr i64 %7 to ptr
  %19 = load i64, ptr %18, align 8, !tbaa !42
  %.fr11.i.i = freeze i64 %19
  %20 = and i64 %.fr11.i.i, 31
  %21 = icmp eq i64 %20, 20
  br i1 %21, label %vm_block_handler_type.exit.i, label %31

22:                                               ; preds = %11
  %23 = getelementptr inbounds nuw i8, ptr %2, i64 24
  store i32 0, ptr %23, align 8, !tbaa !14
  %24 = and i64 %7, -4
  %25 = inttoptr i64 %24 to ptr
  call void @llvm.memcpy.p0.p0.i64(ptr noundef nonnull align 8 dereferenceable(24) %2, ptr noundef nonnull align 8 dereferenceable(24) %25, i64 24, i1 false), !tbaa.struct !82
  br label %block_setup.exit

26:                                               ; preds = %11
  %27 = getelementptr inbounds nuw i8, ptr %2, i64 24
  store i32 1, ptr %27, align 8, !tbaa !14
  %28 = and i64 %7, -4
  %29 = inttoptr i64 %28 to ptr
  call void @llvm.memcpy.p0.p0.i64(ptr noundef nonnull align 8 dereferenceable(24) %2, ptr noundef nonnull align 8 dereferenceable(24) %29, i64 24, i1 false), !tbaa.struct !82
  br label %block_setup.exit

vm_block_handler_type.exit.i:                     ; preds = %RB_SYMBOL_P.exit.i.i, %13
  %30 = getelementptr inbounds nuw i8, ptr %2, i64 24
  store i32 2, ptr %30, align 8, !tbaa !14
  store i64 %7, ptr %2, align 8, !tbaa !35
  br label %block_setup.exit

31:                                               ; preds = %RB_SYMBOL_P.exit.i.i, %16
  %32 = getelementptr inbounds nuw i8, ptr %2, i64 24
  store i32 3, ptr %32, align 8, !tbaa !14
  store i64 %7, ptr %2, align 8, !tbaa !35
  br label %block_setup.exit

block_setup.exit:                                 ; preds = %22, %26, %vm_block_handler_type.exit.i, %31
  %33 = call fastcc i32 @rb_vm_block_min_max_arity(ptr noundef nonnull %2, ptr noundef %0)
  call void @llvm.lifetime.end.p0(i64 32, ptr nonnull %2) #21
  ret i32 %33
}